; Function Attrs: mustprogress nounwind uwtable
define hidden noundef i32 @_ZN19InstanceMirrorKlass30compute_static_oop_field_countEP7oopDesc(ptr nocapture noundef nonnull readnone align 8 dereferenceable(464) %0, ptr noundef nonnull %1) local_unnamed_addr #0 align 2 {
  %3 = load i32, ptr @_ZN15java_lang_Class13_klass_offsetE, align 4
  %4 = tail call noundef ptr @_ZNK7oopDesc14metadata_fieldEi(ptr noundef nonnull align 8 dereferenceable(16) %1, i32 noundef %3) #5
  %.not = icmp eq ptr %4, null
  br i1 %.not, label %13, label %5

5:                                                ; preds = %2
  %6 = getelementptr inbounds i8, ptr %4, i64 12
  %7 = load i32, ptr %6, align 4
  %8 = icmp slt i32 %7, 5
  br i1 %8, label %9, label %13

9:                                                ; preds = %5
  %10 = getelementptr inbounds i8, ptr %4, i64 300
  %11 = load i16, ptr %10, align 4
  %12 = zext i16 %11 to i32
  br label %13

13:                                               ; preds = %2, %5, %9
  %.0 = phi i32 [ %12, %9 ], [ 0, %5 ], [ 0, %2 ]
  ret i32 %.0
}